; Function Attrs: nounwind uwtable
define internal fastcc void @append_schema_pattern(ptr noundef captures(none) %0, ptr noundef %1, i32 noundef %2) unnamed_addr #0 {
  %4 = alloca %struct.PQExpBufferData, align 8
  %5 = alloca %struct.PQExpBufferData, align 8
  %6 = alloca i32, align 4
  call void @llvm.lifetime.start.p0(i64 24, ptr nonnull %4) #11
  call void @llvm.lifetime.start.p0(i64 24, ptr nonnull %5) #11
  call void @llvm.lifetime.start.p0(i64 4, ptr nonnull %6) #11
  %7 = getelementptr inbounds nuw i8, ptr %0, i64 8
  %8 = load i64, ptr %7, align 8
  %9 = add i64 %8, 1
  store i64 %9, ptr %7, align 8
  %10 = load ptr, ptr %0, align 8
  %11 = mul i64 %9, 40
  %12 = tail call ptr @pg_realloc(ptr noundef %10, i64 noundef %11) #11
  store ptr %12, ptr %0, align 8
  %13 = load i64, ptr %7, align 8
  %14 = getelementptr %struct.PatternInfo, ptr %12, i64 %13
  %15 = getelementptr i8, ptr %14, i64 -40
  tail call void @llvm.memset.p0.i64(ptr noundef nonnull align 8 dereferenceable(40) %15, i8 0, i64 40, i1 false)
  call void @initPQExpBuffer(ptr noundef nonnull %4) #11
  call void @initPQExpBuffer(ptr noundef nonnull %5) #11
  call void @patternToSQLRegex(i32 noundef %2, ptr noundef null, ptr noundef nonnull %4, ptr noundef nonnull %5, ptr noundef %1, i1 noundef zeroext false, i1 noundef zeroext false, ptr noundef nonnull %6) #11
  %16 = load i32, ptr %6, align 4
  %17 = icmp sgt i32 %16, 1
  br i1 %17, label %18, label %19

18:                                               ; preds = %3
  call void (i32, i32, ptr, ...) @pg_log_generic(i32 noundef 4, i32 noundef 0, ptr noundef nonnull @.str.154, ptr noundef %1) #11
  call void @exit(i32 noundef 2) #12
  unreachable

19:                                               ; preds = %3
  store ptr %1, ptr %15, align 8
  %20 = load ptr, ptr %4, align 8
  %21 = load i8, ptr %20, align 1
  %.not = icmp eq i8 %21, 0
  br i1 %.not, label %25, label %22

22:                                               ; preds = %19
  store i8 1, ptr @opts, align 8
  %23 = call ptr @pstrdup(ptr noundef nonnull %20) #11
  %24 = getelementptr i8, ptr %14, i64 -32
  store ptr %23, ptr %24, align 8
  br label %25

25:                                               ; preds = %22, %19
  %26 = load ptr, ptr %5, align 8
  %27 = load i8, ptr %26, align 1
  %.not7 = icmp eq i8 %27, 0
  br i1 %.not7, label %31, label %28

28:                                               ; preds = %25
  %29 = call ptr @pstrdup(ptr noundef nonnull %26) #11
  %30 = getelementptr i8, ptr %14, i64 -24
  store ptr %29, ptr %30, align 8
  br label %31

31:                                               ; preds = %28, %25
  call void @termPQExpBuffer(ptr noundef nonnull %4) #11
  call void @termPQExpBuffer(ptr noundef nonnull %5) #11
  call void @llvm.lifetime.end.p0(i64 4, ptr nonnull %6) #11
  call void @llvm.lifetime.end.p0(i64 24, ptr nonnull %5) #11
  call void @llvm.lifetime.end.p0(i64 24, ptr nonnull %4) #11
  ret void
}